; Function Attrs: nounwind uwtable
define internal i32 @lj_cf_ffi_meta___div(ptr noundef %0) #0 {
  %2 = getelementptr inbounds nuw i8, ptr %0, i64 32
  %3 = load ptr, ptr %2, align 8, !tbaa !44
  %4 = getelementptr inbounds i8, ptr %3, i64 -16
  %5 = load i64, ptr %4, align 8, !tbaa !23
  %6 = and i64 %5, 140737488355327
  %7 = inttoptr i64 %6 to ptr
  %8 = getelementptr inbounds nuw i8, ptr %7, i64 10
  %9 = load i8, ptr %8, align 2, !tbaa !23
  %10 = zext i8 %9 to i32
  %11 = add nsw i32 %10, -162
  %12 = tail call i32 @lj_carith_op(ptr noundef %0, i32 noundef %11) #9
  ret i32 %12
}